; Function Attrs: mustprogress nounwind uwtable
define hidden void @_ZN5ZMark14resize_workersEj(ptr noundef nonnull align 64 dereferenceable(2652) %0, i32 noundef %1) local_unnamed_addr #0 align 2 {
  %3 = getelementptr inbounds i8, ptr %0, i64 2648
  store i32 %1, ptr %3, align 8
  %4 = tail call noundef range(i32 0, 33) i32 @llvm.ctlz.i32(i32 %1, i1 true)
  %5 = xor i32 %4, 31
  %6 = shl nuw i32 1, %5
  %7 = tail call i32 @llvm.umin.i32(i32 %6, i32 16)
  %8 = zext nneg i32 %7 to i64
  %9 = getelementptr inbounds i8, ptr %0, i64 384
  tail call void @_ZN14ZMarkStripeSet12set_nstripesEm(ptr noundef nonnull align 64 dereferenceable(2112) %9, i64 noundef %8) #15
  %10 = getelementptr inbounds i8, ptr %0, i64 2496
  store volatile i32 %1, ptr %10, align 64
  %11 = getelementptr inbounds i8, ptr %0, i64 2500
  store volatile i32 %1, ptr %11, align 4
  %12 = getelementptr inbounds i8, ptr %0, i64 2504
  store volatile i32 0, ptr %12, align 8
  ret void
}